(dp0
S'grants'
p1
(dp2
sS'struct'
p3
(dp4
Vsdonovan
p5
c__builtin__
set
p6
((lp7
tp8
Rp9
sVmia
p10
g6
((lp11
tp12
Rp13
sVatl
p14
g6
((lp15
tp16
Rp17
sVgru
p18
g6
((lp19
tp20
Rp21
ssS'roles'
p22
g6
((lp23
Vac
p24
aVam
p25
aVal
p26
aVce
p27
aVap
p28
aVgo
p29
accopy_reg
_reconstructor
p30
(cRestAPI
User
p31
c__builtin__
object
p32
Ntp33
Rp34
(dp35
S'id'
p36
S'jskandalakis3@gatech.edu\n'
p37
sbaVes
p38
aVsdonovan
p39
aVgru
p40
aVrr
p41
aVrs
p42
aVmia
p43
aVto
p44
aVpa
p45
aVpe
p46
aVrn
p47
aVro
p48
aVrj
p49
aVpr
p50
aVba
p51
aVdf
p52
ag30
(g31
g32
Ntp53
Rp54
(dp55
g36
S'jskandalakis3@gatech.edu\n'
p56
sbaVmg
p57
aVpi
p58
aVma
p59
aVms
p60
aVatl
p61
aVsp
p62
aVmt
p63
aVpbc
p64
aVsc
p65
aVse
p66
aVpbj
p67
atp68
Rp69
s.