(dp0
S'grants'
p1
(dp2
sS'struct'
p3
(dp4
Vsdonovan
p5
c__builtin__
set
p6
((lp7
tp8
Rp9
sVmia
p10
g6
((lp11
tp12
Rp13
sVatl
p14
g6
((lp15
tp16
Rp17
sVgru
p18
g6
((lp19
tp20
Rp21
ssS'roles'
p22
g6
((lp23
Vac
p24
aVam
p25
aVal
p26
aVce
p27
accopy_reg
_reconstructor
p28
(cRestAPI
User
p29
c__builtin__
object
p30
Ntp31
Rp32
(dp33
S'id'
p34
S'jskandalakis3@gatech.edu\n'
p35
sbaVgo
p36
aVes
p37
aVba
p38
aVsdonovan
p39
aVgru
p40
aVrr
p41
aVrs
p42
aVmia
p43
aVto
p44
aVpa
p45
aVpe
p46
aVrn
p47
aVro
p48
aVrj
p49
aVpr
p50
ag28
(g29
g30
Ntp51
Rp52
(dp53
g34
S'jskandalakis3@gatech.edu\n'
p54
sbaVdf
p55
aVmg
p56
aVpi
p57
aVma
p58
aVms
p59
aVap
p60
aVatl
p61
aVsp
p62
aVmt
p63
aVpbc
p64
aVsc
p65
aVse
p66
aVpbj
p67
atp68
Rp69
s.