(dp0
S'grants'
p1
(dp2
sS'struct'
p3
(dp4
Vac
p5
c__builtin__
set
p6
((lp7
tp8
Rp9
sVam
p10
g6
((lp11
tp12
Rp13
sVal
p14
g6
((lp15
tp16
Rp17
sVce
p18
g6
((lp19
tp20
Rp21
sVap
p22
g6
((lp23
tp24
Rp25
sVgo
p26
g6
((lp27
tp28
Rp29
sVes
p30
g6
((lp31
tp32
Rp33
sVsdonovan
p34
g6
((lp35
tp36
Rp37
sVrr
p38
g6
((lp39
tp40
Rp41
sVrs
p42
g6
((lp43
tp44
Rp45
sVmia
p46
g6
((lp47
tp48
Rp49
sVto
p50
g6
((lp51
tp52
Rp53
sVpa
p54
g6
((lp55
tp56
Rp57
sVpe
p58
g6
((lp59
tp60
Rp61
sVrn
p62
g6
((lp63
tp64
Rp65
sVro
p66
g6
((lp67
tp68
Rp69
sVrj
p70
g6
((lp71
tp72
Rp73
sVpr
p74
g6
((lp75
tp76
Rp77
sVba
p78
g6
((lp79
tp80
Rp81
sVdf
p82
g6
((lp83
tp84
Rp85
sVmg
p86
g6
((lp87
tp88
Rp89
sVpi
p90
g6
((lp91
tp92
Rp93
sVma
p94
g6
((lp95
tp96
Rp97
sVms
p98
g6
((lp99
tp100
Rp101
sVsp
p102
g6
((lp103
tp104
Rp105
sVmt
p106
g6
((lp107
tp108
Rp109
sVpbc
p110
g6
((lp111
tp112
Rp113
sVsc
p114
g6
((lp115
tp116
Rp117
sVse
p118
g6
((lp119
tp120
Rp121
sVpbj
p122
g6
((lp123
tp124
Rp125
ssS'roles'
p126
g6
((lp127
Vpr
p128
aVac
p129
aVba
p130
aVdf
p131
aVam
p132
aVal
p133
aVce
p134
aVmt
p135
aVap
p136
aVgo
p137
aVes
p138
aVsdonovan
p139
aVmg
p140
aVpi
p141
aVma
p142
aVms
p143
aVrr
p144
aVrs
p145
aVmia
p146
aVsp
p147
aVto
p148
aVpa
p149
aVse
p150
aVpbc
p151
aVpe
p152
aVsc
p153
aVrn
p154
aVro
p155
aVrj
p156
aVpbj
p157
atp158
Rp159
s.