(dp0
S'grants'
p1
(dp2
sS'struct'
p3
(dp4
Vsdonovan
p5
c__builtin__
set
p6
((lp7
tp8
Rp9
sVmia
p10
g6
((lp11
tp12
Rp13
sVatl
p14
g6
((lp15
tp16
Rp17
sVgru
p18
g6
((lp19
tp20
Rp21
ssS'roles'
p22
g6
((lp23
Vac
p24
aVam
p25
aVal
p26
aVce
p27
aVap
p28
aVgo
p29
aVes
p30
aVsdonovan
p31
aVgru
p32
aVrr
p33
aVrs
p34
aVmia
p35
aVto
p36
aVpa
p37
aVpe
p38
aVrn
p39
aVro
p40
aVrj
p41
aVpr
p42
aVba
p43
aVdf
p44
aVmg
p45
aVpi
p46
aVma
p47
aVms
p48
aVatl
p49
aVsp
p50
aVmt
p51
aVpbc
p52
aVsc
p53
aVse
p54
aVpbj
p55
atp56
Rp57
s.