(dp0
S'grants'
p1
(dp2
VADMIN
p3
ccollections
defaultdict
p4
(c__builtin__
set
p5
tp6
Rp7
Vsdonovan
p8
g5
((lp9
Vshow
p10
atp11
Rp12
sVgru
p13
g5
((lp14
Vaccess
p15
aVedit
p16
aVdelete
p17
atp18
Rp19
sS'admin_console'
p20
g5
((lp21
S'permission 1'
p22
atp23
Rp24
sVmia
p25
g5
((lp26
Vaccess
p27
aVedit
p28
aVdelete
p29
atp30
Rp31
sVatl
p32
g5
((lp33
Vaccess
p34
aVedit
p35
aVdelete
p36
atp37
Rp38
sVscientist
p39
g5
((lp40
Vpermission 1
p41
atp42
Rp43
sS'setting'
p44
g5
((lp45
S'role'
p46
atp47
Rp48
sVengineer
p49
g5
((lp50
Vpermission 1
p51
aVpermission 2
p52
atp53
Rp54
ssVsdonovan
p55
g4
(g5
tp56
Rp57
Vsdonovan
p58
g5
((lp59
Vshow
p60
atp61
Rp62
sg44
g5
((lp63
g46
atp64
Rp65
ssS'DEFAULT'
p66
g4
(g5
tp67
Rp68
g44
g5
((lp69
g46
atp70
Rp71
sssS'struct'
p72
(dp73
S'sdonovan'
p74
g5
((lp75
S'setting'
p76
aS'show'
p77
atp78
Rp79
sS'gru'
p80
g5
((lp81
S'access'
p82
aS'edit'
p83
aS'delete'
p84
atp85
Rp86
sS'admin_console'
p87
g5
((lp88
S'permission 1'
p89
atp90
Rp91
sS'mia'
p92
g5
((lp93
g82
ag83
ag84
atp94
Rp95
sS'atl'
p96
g5
((lp97
g82
ag83
ag84
atp98
Rp99
sS'scientist'
p100
g5
((lp101
g89
atp102
Rp103
sg44
g5
((lp104
g46
atp105
Rp106
sS'engineer'
p107
g5
((lp108
g89
aS'permission 2'
p109
atp110
Rp111
ssS'roles'
p112
g5
((lp113
S'sdonovan'
p114
aV
p115
aS'ADMIN'
p116
aVHowdy!
p117
aVTacos
p118
ag66
aVHellokajslfkj
p119
aVtest
p120
aVHowdy'; DROP TABLE user_table;
p121
aV"'>
p122
atp123
Rp124
s.